; Function Attrs: mustprogress uwtable
define hidden void @_ZN6google8protobuf8compiler4java17ClassNameResolver23GetJavaMutableClassNameB5cxx11EPKNS0_10DescriptorE(ptr noalias sret(%"class.std::__cxx11::basic_string") align 8 %agg.result, ptr noundef nonnull align 8 dereferenceable(112) %this, ptr noundef readonly captures(none) %descriptor) local_unnamed_addr #3 align 2 personality ptr @__gxx_personality_v0 {
entry:
  %ref.tmp = alloca %"class.std::__cxx11::basic_string", align 8
  call fastcc void @_ZN6google8protobuf8compiler4java12_GLOBAL__N_123ClassNameWithoutPackageB5cxx11EPKNS0_10DescriptorEb(ptr noalias align 8 %ref.tmp, ptr noundef %descriptor)
  %call = call { i64, ptr } @_ZNKSt7__cxx1112basic_stringIcSt11char_traitsIcESaIcEEcvSt17basic_string_viewIcS2_EEv(ptr noundef nonnull align 8 dereferenceable(32) %ref.tmp) #18
  %0 = extractvalue { i64, ptr } %call, 0
  %1 = extractvalue { i64, ptr } %call, 1
  %file_.i = getelementptr inbounds nuw i8, ptr %descriptor, i64 16
  %2 = load ptr, ptr %file_.i, align 8
  invoke void @_ZN6google8protobuf8compiler4java17ClassNameResolver20GetJavaClassFullNameB5cxx11ESt17basic_string_viewIcSt11char_traitsIcEEPKNS0_14FileDescriptorEbb(ptr sret(%"class.std::__cxx11::basic_string") align 8 %agg.result, ptr noundef nonnull align 8 dereferenceable(112) %this, i64 %0, ptr %1, ptr noundef %2, i1 noundef zeroext false, i1 noundef zeroext false)
          to label %invoke.cont3 unwind label %lpad

invoke.cont3:                                     ; preds = %entry
  call void @_ZNSt7__cxx1112basic_stringIcSt11char_traitsIcESaIcEED1Ev(ptr noundef nonnull align 8 dereferenceable(32) %ref.tmp) #18
  ret void

lpad:                                             ; preds = %entry
  %3 = landingpad { ptr, i32 }
          cleanup
  call void @_ZNSt7__cxx1112basic_stringIcSt11char_traitsIcESaIcEED1Ev(ptr noundef nonnull align 8 dereferenceable(32) %ref.tmp) #18
  resume { ptr, i32 } %3
}